target datalayout = "e-m:e-p270:32:32-p271:32:32-p272:64:64-i64:64-i128:128-f80:128-n8:16:32:64-S128"
target triple = "x86_64-pc-linux-gnu"

%"class.std::__cxx11::basic_string" = type { %"struct.std::__cxx11::basic_string<char>::_Alloc_hider", i64, %union.anon }
%"struct.std::__cxx11::basic_string<char>::_Alloc_hider" = type { ptr }
%union.anon = type { i64, [8 x i8] }
%"class.std::__cxx11::basic_string.1" = type { %"struct.std::__cxx11::basic_string<unsigned short, base::string16_char_traits>::_Alloc_hider", i64, %union.anon.5 }
%"struct.std::__cxx11::basic_string<unsigned short, base::string16_char_traits>::_Alloc_hider" = type { ptr }
%union.anon.5 = type { i64, [8 x i8] }
%"struct.base::(anonymous namespace)::EmptyStrings" = type { %"class.std::__cxx11::basic_string", %"class.std::__cxx11::basic_string.1" }
%"struct.std::__atomic_base" = type { i64 }

@_ZN4base9SingletonINS_12_GLOBAL__N_112EmptyStringsENS_22DefaultSingletonTraitsIS2_EES2_E9instance_E = internal global i64 0, align 8

; Function Attrs: mustprogress nounwind uwtable
define linkonce_odr void @_ZNSt15__new_allocatorIcE10deallocateEPcm(ptr noundef nonnull align 1 dereferenceable(1) %0, ptr noundef %1, i64 noundef %2) #0 comdat align 2 {
  %4 = alloca ptr, align 8
  %5 = alloca ptr, align 8
  %6 = alloca i64, align 8
  store ptr %0, ptr %4, align 8, !tbaa !164
  store ptr %1, ptr %5, align 8, !tbaa !18
  store i64 %2, ptr %6, align 8, !tbaa !20
  %7 = load ptr, ptr %5, align 8, !tbaa !18
  call void @_ZdlPv(ptr noundef %7) #21
  ret void
}

; Function Attrs: mustprogress nounwind uwtable
define linkonce_odr noundef ptr @_ZNSt19__ptr_traits_ptr_toIPKcS0_Lb0EE10pointer_toERS0_(ptr noundef nonnull align 1 dereferenceable(1) %0) #0 comdat align 2 {
  %2 = alloca ptr, align 8
  store ptr %0, ptr %2, align 8, !tbaa !18
  %3 = load ptr, ptr %2, align 8, !tbaa !18
  ret ptr %3
}

; Function Attrs: mustprogress nounwind uwtable
define linkonce_odr void @_ZNSt15__new_allocatorItE10deallocateEPtm(ptr noundef nonnull align 1 dereferenceable(1) %0, ptr noundef %1, i64 noundef %2) #0 comdat align 2 {
  %4 = alloca ptr, align 8
  %5 = alloca ptr, align 8
  %6 = alloca i64, align 8
  store ptr %0, ptr %4, align 8, !tbaa !175
  store ptr %1, ptr %5, align 8, !tbaa !24
  store i64 %2, ptr %6, align 8, !tbaa !20
  %7 = load ptr, ptr %5, align 8, !tbaa !24
  call void @_ZdlPv(ptr noundef %7) #21
  ret void
}

; Function Attrs: mustprogress nounwind uwtable
define linkonce_odr noundef ptr @_ZNSt19__ptr_traits_ptr_toIPKtS0_Lb0EE10pointer_toERS0_(ptr noundef nonnull align 2 dereferenceable(2) %0) #0 comdat align 2 {
  %2 = alloca ptr, align 8
  store ptr %0, ptr %2, align 8, !tbaa !24
  %3 = load ptr, ptr %2, align 8, !tbaa !24
  ret ptr %3
}

; Function Attrs: mustprogress uwtable
define linkonce_odr void @_ZNSt16allocator_traitsISaIcEE10deallocateERS0_Pcm(ptr noundef nonnull align 1 dereferenceable(1) %0, ptr noundef %1, i64 noundef %2) #3 comdat align 2 {
  %4 = alloca ptr, align 8
  %5 = alloca ptr, align 8
  %6 = alloca i64, align 8
  store ptr %0, ptr %4, align 8, !tbaa !162
  store ptr %1, ptr %5, align 8, !tbaa !18
  store i64 %2, ptr %6, align 8, !tbaa !20
  %7 = load ptr, ptr %4, align 8, !tbaa !162
  %8 = load ptr, ptr %5, align 8, !tbaa !18
  %9 = load i64, ptr %6, align 8, !tbaa !20
  call void @_ZNSt15__new_allocatorIcE10deallocateEPcm(ptr noundef nonnull align 1 dereferenceable(1) %7, ptr noundef %8, i64 noundef %9)
  ret void
}

; Function Attrs: mustprogress nounwind uwtable
define available_externally noundef nonnull align 1 dereferenceable(1) ptr @_ZNSt7__cxx1112basic_stringIcSt11char_traitsIcESaIcEE16_M_get_allocatorEv(ptr noundef nonnull align 8 dereferenceable(32) %0) #0 align 2 {
  %2 = alloca ptr, align 8
  store ptr %0, ptr %2, align 8, !tbaa !45
  %3 = load ptr, ptr %2, align 8
  %4 = getelementptr inbounds nuw %"class.std::__cxx11::basic_string", ptr %3, i32 0, i32 0
  ret ptr %4
}

; Function Attrs: mustprogress nounwind uwtable
define available_externally noundef ptr @_ZNKSt7__cxx1112basic_stringIcSt11char_traitsIcESaIcEE13_M_local_dataEv(ptr noundef nonnull align 8 dereferenceable(32) %0) #0 align 2 {
  %2 = alloca ptr, align 8
  store ptr %0, ptr %2, align 8, !tbaa !45
  %3 = load ptr, ptr %2, align 8
  %4 = getelementptr inbounds nuw %"class.std::__cxx11::basic_string", ptr %3, i32 0, i32 2
  %5 = getelementptr inbounds [16 x i8], ptr %4, i64 0, i64 0
  %6 = call noundef ptr @_ZNSt19__ptr_traits_ptr_toIPKcS0_Lb0EE10pointer_toERS0_(ptr noundef nonnull align 1 dereferenceable(1) %5) #17
  ret ptr %6
}

; Function Attrs: mustprogress nounwind uwtable
define available_externally noundef ptr @_ZNKSt7__cxx1112basic_stringIcSt11char_traitsIcESaIcEE7_M_dataEv(ptr noundef nonnull align 8 dereferenceable(32) %0) #0 align 2 {
  %2 = alloca ptr, align 8
  store ptr %0, ptr %2, align 8, !tbaa !45
  %3 = load ptr, ptr %2, align 8
  %4 = getelementptr inbounds nuw %"class.std::__cxx11::basic_string", ptr %3, i32 0, i32 0
  %5 = getelementptr inbounds nuw %"struct.std::__cxx11::basic_string<char>::_Alloc_hider", ptr %4, i32 0, i32 0
  %6 = load ptr, ptr %5, align 8, !tbaa !161
  ret ptr %6
}

; Function Attrs: mustprogress uwtable
define linkonce_odr void @_ZNSt16allocator_traitsISaItEE10deallocateERS0_Ptm(ptr noundef nonnull align 1 dereferenceable(1) %0, ptr noundef %1, i64 noundef %2) #3 comdat align 2 {
  %4 = alloca ptr, align 8
  %5 = alloca ptr, align 8
  %6 = alloca i64, align 8
  store ptr %0, ptr %4, align 8, !tbaa !170
  store ptr %1, ptr %5, align 8, !tbaa !24
  store i64 %2, ptr %6, align 8, !tbaa !20
  %7 = load ptr, ptr %4, align 8, !tbaa !170
  %8 = load ptr, ptr %5, align 8, !tbaa !24
  %9 = load i64, ptr %6, align 8, !tbaa !20
  call void @_ZNSt15__new_allocatorItE10deallocateEPtm(ptr noundef nonnull align 1 dereferenceable(1) %7, ptr noundef %8, i64 noundef %9)
  ret void
}

; Function Attrs: mustprogress nounwind uwtable
define available_externally noundef nonnull align 1 dereferenceable(1) ptr @_ZNSt7__cxx1112basic_stringItN4base20string16_char_traitsESaItEE16_M_get_allocatorEv(ptr noundef nonnull align 8 dereferenceable(32) %0) #0 align 2 {
  %2 = alloca ptr, align 8
  store ptr %0, ptr %2, align 8, !tbaa !42
  %3 = load ptr, ptr %2, align 8
  %4 = getelementptr inbounds nuw %"class.std::__cxx11::basic_string.1", ptr %3, i32 0, i32 0
  ret ptr %4
}

; Function Attrs: mustprogress nounwind uwtable
define available_externally noundef ptr @_ZNKSt7__cxx1112basic_stringItN4base20string16_char_traitsESaItEE13_M_local_dataEv(ptr noundef nonnull align 8 dereferenceable(32) %0) #0 align 2 {
  %2 = alloca ptr, align 8
  store ptr %0, ptr %2, align 8, !tbaa !42
  %3 = load ptr, ptr %2, align 8
  %4 = getelementptr inbounds nuw %"class.std::__cxx11::basic_string.1", ptr %3, i32 0, i32 2
  %5 = getelementptr inbounds [8 x i16], ptr %4, i64 0, i64 0
  %6 = call noundef ptr @_ZNSt19__ptr_traits_ptr_toIPKtS0_Lb0EE10pointer_toERS0_(ptr noundef nonnull align 2 dereferenceable(2) %5) #17
  ret ptr %6
}

; Function Attrs: mustprogress nounwind uwtable
define available_externally noundef ptr @_ZNKSt7__cxx1112basic_stringItN4base20string16_char_traitsESaItEE7_M_dataEv(ptr noundef nonnull align 8 dereferenceable(32) %0) #0 align 2 {
  %2 = alloca ptr, align 8
  store ptr %0, ptr %2, align 8, !tbaa !42
  %3 = load ptr, ptr %2, align 8
  %4 = getelementptr inbounds nuw %"class.std::__cxx11::basic_string.1", ptr %3, i32 0, i32 0
  %5 = getelementptr inbounds nuw %"struct.std::__cxx11::basic_string<unsigned short, base::string16_char_traits>::_Alloc_hider", ptr %4, i32 0, i32 0
  %6 = load ptr, ptr %5, align 8, !tbaa !177
  ret ptr %6
}

; Function Attrs: mustprogress nounwind uwtable
define available_externally void @_ZNSt7__cxx1112basic_stringIcSt11char_traitsIcESaIcEE10_M_destroyEm(ptr noundef nonnull align 8 dereferenceable(32) %0, i64 noundef %1) #0 align 2 personality ptr @__gxx_personality_v0 {
  %3 = alloca ptr, align 8
  %4 = alloca i64, align 8
  %5 = alloca ptr, align 8
  %6 = alloca i32, align 4
  store ptr %0, ptr %3, align 8, !tbaa !45
  store i64 %1, ptr %4, align 8, !tbaa !20
  %7 = load ptr, ptr %3, align 8
  %8 = invoke noundef nonnull align 1 dereferenceable(1) ptr @_ZNSt7__cxx1112basic_stringIcSt11char_traitsIcESaIcEE16_M_get_allocatorEv(ptr noundef nonnull align 8 dereferenceable(32) %7)
          to label %9 unwind label %14

9:                                                ; preds = %2
  %10 = call noundef ptr @_ZNKSt7__cxx1112basic_stringIcSt11char_traitsIcESaIcEE7_M_dataEv(ptr noundef nonnull align 8 dereferenceable(32) %7)
  %11 = load i64, ptr %4, align 8, !tbaa !20
  %12 = add i64 %11, 1
  invoke void @_ZNSt16allocator_traitsISaIcEE10deallocateERS0_Pcm(ptr noundef nonnull align 1 dereferenceable(1) %8, ptr noundef %10, i64 noundef %12)
          to label %13 unwind label %14

13:                                               ; preds = %9
  ret void

14:                                               ; preds = %9, %2
  %15 = landingpad { ptr, i32 }
          filter [0 x ptr] zeroinitializer
  %16 = extractvalue { ptr, i32 } %15, 0
  store ptr %16, ptr %5, align 8
  %17 = extractvalue { ptr, i32 } %15, 1
  store i32 %17, ptr %6, align 4
  br label %18

18:                                               ; preds = %14
  %19 = load ptr, ptr %5, align 8
  call void @__cxa_call_unexpected(ptr %19) #22
  unreachable
}

; Function Attrs: mustprogress uwtable
define available_externally noundef zeroext i1 @_ZNKSt7__cxx1112basic_stringIcSt11char_traitsIcESaIcEE11_M_is_localEv(ptr noundef nonnull align 8 dereferenceable(32) %0) #3 align 2 {
  %2 = alloca i1, align 1
  %3 = alloca ptr, align 8
  store ptr %0, ptr %3, align 8, !tbaa !45
  %4 = load ptr, ptr %3, align 8
  %5 = call noundef ptr @_ZNKSt7__cxx1112basic_stringIcSt11char_traitsIcESaIcEE7_M_dataEv(ptr noundef nonnull align 8 dereferenceable(32) %4)
  %6 = call noundef ptr @_ZNKSt7__cxx1112basic_stringIcSt11char_traitsIcESaIcEE13_M_local_dataEv(ptr noundef nonnull align 8 dereferenceable(32) %4)
  %7 = icmp eq ptr %5, %6
  br i1 %7, label %8, label %14

8:                                                ; preds = %1
  %9 = getelementptr inbounds nuw %"class.std::__cxx11::basic_string", ptr %4, i32 0, i32 1
  %10 = load i64, ptr %9, align 8, !tbaa !55
  %11 = icmp ugt i64 %10, 15
  br i1 %11, label %12, label %13

12:                                               ; preds = %8
  unreachable

13:                                               ; preds = %8
  store i1 true, ptr %2, align 1
  br label %15

14:                                               ; preds = %1
  store i1 false, ptr %2, align 1
  br label %15

15:                                               ; preds = %14, %13
  %16 = load i1, ptr %2, align 1
  ret i1 %16
}

; Function Attrs: mustprogress nounwind uwtable
define available_externally void @_ZNSt7__cxx1112basic_stringItN4base20string16_char_traitsESaItEE10_M_destroyEm(ptr noundef nonnull align 8 dereferenceable(32) %0, i64 noundef %1) #0 align 2 personality ptr @__gxx_personality_v0 {
  %3 = alloca ptr, align 8
  %4 = alloca i64, align 8
  %5 = alloca ptr, align 8
  %6 = alloca i32, align 4
  store ptr %0, ptr %3, align 8, !tbaa !42
  store i64 %1, ptr %4, align 8, !tbaa !20
  %7 = load ptr, ptr %3, align 8
  %8 = invoke noundef nonnull align 1 dereferenceable(1) ptr @_ZNSt7__cxx1112basic_stringItN4base20string16_char_traitsESaItEE16_M_get_allocatorEv(ptr noundef nonnull align 8 dereferenceable(32) %7)
          to label %9 unwind label %14

9:                                                ; preds = %2
  %10 = call noundef ptr @_ZNKSt7__cxx1112basic_stringItN4base20string16_char_traitsESaItEE7_M_dataEv(ptr noundef nonnull align 8 dereferenceable(32) %7)
  %11 = load i64, ptr %4, align 8, !tbaa !20
  %12 = add i64 %11, 1
  invoke void @_ZNSt16allocator_traitsISaItEE10deallocateERS0_Ptm(ptr noundef nonnull align 1 dereferenceable(1) %8, ptr noundef %10, i64 noundef %12)
          to label %13 unwind label %14

13:                                               ; preds = %9
  ret void

14:                                               ; preds = %9, %2
  %15 = landingpad { ptr, i32 }
          filter [0 x ptr] zeroinitializer
  %16 = extractvalue { ptr, i32 } %15, 0
  store ptr %16, ptr %5, align 8
  %17 = extractvalue { ptr, i32 } %15, 1
  store i32 %17, ptr %6, align 4
  br label %18

18:                                               ; preds = %14
  %19 = load ptr, ptr %5, align 8
  call void @__cxa_call_unexpected(ptr %19) #22
  unreachable
}

; Function Attrs: mustprogress uwtable
define available_externally noundef zeroext i1 @_ZNKSt7__cxx1112basic_stringItN4base20string16_char_traitsESaItEE11_M_is_localEv(ptr noundef nonnull align 8 dereferenceable(32) %0) #3 align 2 {
  %2 = alloca i1, align 1
  %3 = alloca ptr, align 8
  store ptr %0, ptr %3, align 8, !tbaa !42
  %4 = load ptr, ptr %3, align 8
  %5 = call noundef ptr @_ZNKSt7__cxx1112basic_stringItN4base20string16_char_traitsESaItEE7_M_dataEv(ptr noundef nonnull align 8 dereferenceable(32) %4)
  %6 = call noundef ptr @_ZNKSt7__cxx1112basic_stringItN4base20string16_char_traitsESaItEE13_M_local_dataEv(ptr noundef nonnull align 8 dereferenceable(32) %4)
  %7 = icmp eq ptr %5, %6
  br i1 %7, label %8, label %14

8:                                                ; preds = %1
  %9 = getelementptr inbounds nuw %"class.std::__cxx11::basic_string.1", ptr %4, i32 0, i32 1
  %10 = load i64, ptr %9, align 8, !tbaa !72
  %11 = icmp ugt i64 %10, 7
  br i1 %11, label %12, label %13

12:                                               ; preds = %8
  unreachable

13:                                               ; preds = %8
  store i1 true, ptr %2, align 1
  br label %15

14:                                               ; preds = %1
  store i1 false, ptr %2, align 1
  br label %15

15:                                               ; preds = %14, %13
  %16 = load i1, ptr %2, align 1
  ret i1 %16
}

; Function Attrs: mustprogress nounwind uwtable
define linkonce_odr void @_ZNSt15__new_allocatorIcED2Ev(ptr noundef nonnull align 1 dereferenceable(1) %0) unnamed_addr #0 comdat align 2 {
  %2 = alloca ptr, align 8
  store ptr %0, ptr %2, align 8, !tbaa !164
  ret void
}

; Function Attrs: mustprogress uwtable
define available_externally void @_ZNSt7__cxx1112basic_stringIcSt11char_traitsIcESaIcEE10_M_disposeEv(ptr noundef nonnull align 8 dereferenceable(32) %0) #3 align 2 {
  %2 = alloca ptr, align 8
  store ptr %0, ptr %2, align 8, !tbaa !45
  %3 = load ptr, ptr %2, align 8
  %4 = call noundef zeroext i1 @_ZNKSt7__cxx1112basic_stringIcSt11char_traitsIcESaIcEE11_M_is_localEv(ptr noundef nonnull align 8 dereferenceable(32) %3)
  br i1 %4, label %8, label %5

5:                                                ; preds = %1
  %6 = getelementptr inbounds nuw %"class.std::__cxx11::basic_string", ptr %3, i32 0, i32 2
  %7 = load i64, ptr %6, align 8, !tbaa !29
  call void @_ZNSt7__cxx1112basic_stringIcSt11char_traitsIcESaIcEE10_M_destroyEm(ptr noundef nonnull align 8 dereferenceable(32) %3, i64 noundef %7) #17
  br label %8

8:                                                ; preds = %5, %1
  ret void
}

; Function Attrs: mustprogress nounwind uwtable
define linkonce_odr void @_ZNSt15__new_allocatorItED2Ev(ptr noundef nonnull align 1 dereferenceable(1) %0) unnamed_addr #0 comdat align 2 {
  %2 = alloca ptr, align 8
  store ptr %0, ptr %2, align 8, !tbaa !175
  ret void
}

; Function Attrs: mustprogress uwtable
define available_externally void @_ZNSt7__cxx1112basic_stringItN4base20string16_char_traitsESaItEE10_M_disposeEv(ptr noundef nonnull align 8 dereferenceable(32) %0) #3 align 2 {
  %2 = alloca ptr, align 8
  store ptr %0, ptr %2, align 8, !tbaa !42
  %3 = load ptr, ptr %2, align 8
  %4 = call noundef zeroext i1 @_ZNKSt7__cxx1112basic_stringItN4base20string16_char_traitsESaItEE11_M_is_localEv(ptr noundef nonnull align 8 dereferenceable(32) %3)
  br i1 %4, label %8, label %5

5:                                                ; preds = %1
  %6 = getelementptr inbounds nuw %"class.std::__cxx11::basic_string.1", ptr %3, i32 0, i32 2
  %7 = load i64, ptr %6, align 8, !tbaa !29
  call void @_ZNSt7__cxx1112basic_stringItN4base20string16_char_traitsESaItEE10_M_destroyEm(ptr noundef nonnull align 8 dereferenceable(32) %3, i64 noundef %7) #17
  br label %8

8:                                                ; preds = %5, %1
  ret void
}

; Function Attrs: mustprogress nounwind uwtable
define available_externally void @_ZNSt7__cxx1112basic_stringIcSt11char_traitsIcESaIcEED2Ev(ptr noundef nonnull align 8 dereferenceable(32) %0) unnamed_addr #0 align 2 personality ptr @__gxx_personality_v0 {
  %2 = alloca ptr, align 8
  store ptr %0, ptr %2, align 8, !tbaa !45
  %3 = load ptr, ptr %2, align 8
  invoke void @_ZNSt7__cxx1112basic_stringIcSt11char_traitsIcESaIcEE10_M_disposeEv(ptr noundef nonnull align 8 dereferenceable(32) %3)
          to label %4 unwind label %6

4:                                                ; preds = %1
  %5 = getelementptr inbounds nuw %"class.std::__cxx11::basic_string", ptr %3, i32 0, i32 0
  call void @_ZNSt15__new_allocatorIcED2Ev(ptr noundef nonnull align 8 dereferenceable(8) %5) #17
  ret void

6:                                                ; preds = %1
  %7 = landingpad { ptr, i32 }
          catch ptr null
  %8 = extractvalue { ptr, i32 } %7, 0
  call void @__clang_call_terminate(ptr %8) #19
  unreachable
}

; Function Attrs: mustprogress nounwind uwtable
define available_externally void @_ZNSt7__cxx1112basic_stringItN4base20string16_char_traitsESaItEED2Ev(ptr noundef nonnull align 8 dereferenceable(32) %0) unnamed_addr #0 align 2 personality ptr @__gxx_personality_v0 {
  %2 = alloca ptr, align 8
  store ptr %0, ptr %2, align 8, !tbaa !42
  %3 = load ptr, ptr %2, align 8
  invoke void @_ZNSt7__cxx1112basic_stringItN4base20string16_char_traitsESaItEE10_M_disposeEv(ptr noundef nonnull align 8 dereferenceable(32) %3)
          to label %4 unwind label %6

4:                                                ; preds = %1
  %5 = getelementptr inbounds nuw %"class.std::__cxx11::basic_string.1", ptr %3, i32 0, i32 0
  call void @_ZNSt15__new_allocatorItED2Ev(ptr noundef nonnull align 8 dereferenceable(8) %5) #17
  ret void

6:                                                ; preds = %1
  %7 = landingpad { ptr, i32 }
          catch ptr null
  %8 = extractvalue { ptr, i32 } %7, 0
  call void @__clang_call_terminate(ptr %8) #19
  unreachable
}

; Function Attrs: noinline noreturn nounwind uwtable
define linkonce_odr hidden void @__clang_call_terminate(ptr noundef %0) #10 comdat {
  %2 = call ptr @__cxa_begin_catch(ptr %0) #17
  call void @_ZSt9terminatev() #19
  unreachable
}

; Function Attrs: mustprogress nounwind uwtable
define linkonce_odr noundef i32 @_ZStanSt12memory_orderSt23__memory_order_modifier(i32 noundef %0, i32 noundef %1) #0 comdat {
  %3 = alloca i32, align 4
  %4 = alloca i32, align 4
  store i32 %0, ptr %3, align 4, !tbaa !134
  store i32 %1, ptr %4, align 4, !tbaa !136
  %5 = load i32, ptr %3, align 4, !tbaa !134
  %6 = load i32, ptr %4, align 4, !tbaa !136
  %7 = and i32 %5, %6
  ret i32 %7
}

; Function Attrs: inlinehint mustprogress nounwind uwtable
define internal void @_ZN4base12_GLOBAL__N_112EmptyStringsD2Ev(ptr noundef nonnull align 8 dereferenceable(64) %0) unnamed_addr #7 align 2 {
  %2 = alloca ptr, align 8
  store ptr %0, ptr %2, align 8, !tbaa !129
  %3 = load ptr, ptr %2, align 8
  %4 = getelementptr inbounds nuw %"struct.base::(anonymous namespace)::EmptyStrings", ptr %3, i32 0, i32 1
  call void @_ZNSt7__cxx1112basic_stringItN4base20string16_char_traitsESaItEED2Ev(ptr noundef nonnull align 8 dereferenceable(32) %4) #17
  %5 = getelementptr inbounds nuw %"struct.base::(anonymous namespace)::EmptyStrings", ptr %3, i32 0, i32 0
  call void @_ZNSt7__cxx1112basic_stringIcSt11char_traitsIcESaIcEED2Ev(ptr noundef nonnull align 8 dereferenceable(32) %5) #17
  ret void
}

; Function Attrs: alwaysinline mustprogress nounwind uwtable
define linkonce_odr noundef i64 @_ZNVKSt13__atomic_baseIlE4loadESt12memory_order(ptr noundef nonnull align 8 dereferenceable(8) %0, i32 noundef %1) #9 comdat align 2 personality ptr @__gxx_personality_v0 {
  %3 = alloca ptr, align 8
  %4 = alloca i32, align 4
  %5 = alloca i32, align 4
  %6 = alloca i64, align 8
  store ptr %0, ptr %3, align 8, !tbaa !132
  store i32 %1, ptr %4, align 4, !tbaa !134
  %7 = load ptr, ptr %3, align 8
  call void @llvm.lifetime.start.p0(i64 4, ptr %5) #17
  %8 = load i32, ptr %4, align 4, !tbaa !134
  %9 = invoke noundef i32 @_ZStanSt12memory_orderSt23__memory_order_modifier(i32 noundef %8, i32 noundef 65535)
          to label %10 unwind label %27

10:                                               ; preds = %2
  store i32 %9, ptr %5, align 4, !tbaa !134
  br label %11

11:                                               ; preds = %10
  br label %12

12:                                               ; preds = %11
  br label %13

13:                                               ; preds = %12
  br label %14

14:                                               ; preds = %13
  br label %15

15:                                               ; preds = %14
  br label %16

16:                                               ; preds = %15
  %17 = getelementptr inbounds nuw %"struct.std::__atomic_base", ptr %7, i32 0, i32 0
  %18 = load i32, ptr %4, align 4, !tbaa !134
  switch i32 %18, label %19 [
    i32 1, label %21
    i32 2, label %21
    i32 5, label %23
  ]

19:                                               ; preds = %16
  %20 = load atomic volatile i64, ptr %17 monotonic, align 8
  store i64 %20, ptr %6, align 8
  br label %25

21:                                               ; preds = %16, %16
  %22 = load atomic volatile i64, ptr %17 acquire, align 8
  store i64 %22, ptr %6, align 8
  br label %25

23:                                               ; preds = %16
  %24 = load atomic volatile i64, ptr %17 seq_cst, align 8
  store i64 %24, ptr %6, align 8
  br label %25

25:                                               ; preds = %23, %21, %19
  %26 = load i64, ptr %6, align 8, !tbaa !20
  call void @llvm.lifetime.end.p0(i64 4, ptr %5) #17
  ret i64 %26

27:                                               ; preds = %2
  %28 = landingpad { ptr, i32 }
          catch ptr null
  %29 = extractvalue { ptr, i32 } %28, 0
  call void @__clang_call_terminate(ptr %29) #19
  unreachable
}

; Function Attrs: mustprogress nounwind uwtable
define internal void @_ZN4base22DefaultSingletonTraitsINS_12_GLOBAL__N_112EmptyStringsEE6DeleteEPS2_(ptr noundef %0) #0 align 2 {
  %2 = alloca ptr, align 8
  store ptr %0, ptr %2, align 8, !tbaa !129
  %3 = load ptr, ptr %2, align 8, !tbaa !129
  %4 = icmp eq ptr %3, null
  br i1 %4, label %6, label %5

5:                                                ; preds = %1
  call void @_ZN4base12_GLOBAL__N_112EmptyStringsD2Ev(ptr noundef nonnull align 8 dereferenceable(64) %3) #17
  call void @_ZdlPv(ptr noundef %3) #21
  br label %6

6:                                                ; preds = %5, %1
  ret void
}

; Function Attrs: inlinehint mustprogress nounwind uwtable
define linkonce_odr noundef i64 @_ZN4base6subtle14NoBarrier_LoadEPVKl(ptr noundef %0) #7 comdat {
  %2 = alloca ptr, align 8
  store ptr %0, ptr %2, align 8, !tbaa !116
  %3 = load ptr, ptr %2, align 8, !tbaa !116
  %4 = call noundef i64 @_ZNVKSt13__atomic_baseIlE4loadESt12memory_order(ptr noundef nonnull align 8 dereferenceable(8) %3, i32 noundef 0) #17
  ret i64 %4
}

; Function Attrs: mustprogress uwtable
define internal void @_ZN4base9SingletonINS_12_GLOBAL__N_112EmptyStringsENS_22DefaultSingletonTraitsIS2_EES2_E6OnExitEPv(ptr noundef %0) #3 align 2 {
  %2 = alloca ptr, align 8
  store ptr %0, ptr %2, align 8, !tbaa !131
  %3 = call noundef i64 @_ZN4base6subtle14NoBarrier_LoadEPVKl(ptr noundef @_ZN4base9SingletonINS_12_GLOBAL__N_112EmptyStringsENS_22DefaultSingletonTraitsIS2_EES2_E9instance_E)
  %4 = inttoptr i64 %3 to ptr
  call void @_ZN4base22DefaultSingletonTraitsINS_12_GLOBAL__N_112EmptyStringsEE6DeleteEPS2_(ptr noundef %4)
  store i64 0, ptr @_ZN4base9SingletonINS_12_GLOBAL__N_112EmptyStringsENS_22DefaultSingletonTraitsIS2_EES2_E9instance_E, align 8, !tbaa !20
  ret void
}