; Function Attrs: mustprogress nounwind uwtable
define internal void @_ZN4base9SingletonINS_12_GLOBAL__N_112EmptyStringsENS_22DefaultSingletonTraitsIS2_EES2_E6OnExitEPv(ptr readnone captures(none) %0) #10 align 2 personality ptr @__gxx_personality_v0 {
  %2 = load atomic volatile i64, ptr @_ZN4base9SingletonINS_12_GLOBAL__N_112EmptyStringsENS_22DefaultSingletonTraitsIS2_EES2_E9instance_E monotonic, align 8
  %3 = inttoptr i64 %2 to ptr
  %4 = icmp eq i64 %2, 0
  br i1 %4, label %_ZN4base22DefaultSingletonTraitsINS_12_GLOBAL__N_112EmptyStringsEE6DeleteEPS2_.exit, label %5

5:                                                ; preds = %1
  %6 = getelementptr inbounds nuw i8, ptr %3, i64 32
  %7 = load ptr, ptr %6, align 8, !tbaa !33
  %8 = getelementptr inbounds nuw i8, ptr %3, i64 48
  %9 = icmp eq ptr %7, %8
  br i1 %9, label %_ZNKSt7__cxx1112basic_stringItN4base20string16_char_traitsESaItEE11_M_is_localEv.exit.thread.i.i.i.i, label %_ZNKSt7__cxx1112basic_stringItN4base20string16_char_traitsESaItEE11_M_is_localEv.exit.i.i.i.i

_ZNKSt7__cxx1112basic_stringItN4base20string16_char_traitsESaItEE11_M_is_localEv.exit.thread.i.i.i.i: ; preds = %5
  %10 = getelementptr inbounds nuw i8, ptr %3, i64 40
  %11 = load i64, ptr %10, align 8, !tbaa !29
  %12 = icmp ult i64 %11, 8
  tail call void @llvm.assume(i1 %12)
  br label %_ZNSt7__cxx1112basic_stringItN4base20string16_char_traitsESaItEED2Ev.exit.i.i

_ZNKSt7__cxx1112basic_stringItN4base20string16_char_traitsESaItEE11_M_is_localEv.exit.i.i.i.i: ; preds = %5
  tail call void @_ZdlPv(ptr noundef %7) #26
  br label %_ZNSt7__cxx1112basic_stringItN4base20string16_char_traitsESaItEED2Ev.exit.i.i

_ZNSt7__cxx1112basic_stringItN4base20string16_char_traitsESaItEED2Ev.exit.i.i: ; preds = %_ZNKSt7__cxx1112basic_stringItN4base20string16_char_traitsESaItEE11_M_is_localEv.exit.i.i.i.i, %_ZNKSt7__cxx1112basic_stringItN4base20string16_char_traitsESaItEE11_M_is_localEv.exit.thread.i.i.i.i
  %13 = load ptr, ptr %3, align 8, !tbaa !21
  %14 = getelementptr inbounds nuw i8, ptr %3, i64 16
  %15 = icmp eq ptr %13, %14
  br i1 %15, label %_ZNKSt7__cxx1112basic_stringIcSt11char_traitsIcESaIcEE11_M_is_localEv.exit.thread.i.i.i.i, label %_ZNKSt7__cxx1112basic_stringIcSt11char_traitsIcESaIcEE11_M_is_localEv.exit.i.i.i.i

_ZNKSt7__cxx1112basic_stringIcSt11char_traitsIcESaIcEE11_M_is_localEv.exit.thread.i.i.i.i: ; preds = %_ZNSt7__cxx1112basic_stringItN4base20string16_char_traitsESaItEED2Ev.exit.i.i
  %16 = getelementptr inbounds nuw i8, ptr %3, i64 8
  %17 = load i64, ptr %16, align 8, !tbaa !17
  %18 = icmp ult i64 %17, 16
  tail call void @llvm.assume(i1 %18)
  br label %_ZN4base12_GLOBAL__N_112EmptyStringsD2Ev.exit.i

_ZNKSt7__cxx1112basic_stringIcSt11char_traitsIcESaIcEE11_M_is_localEv.exit.i.i.i.i: ; preds = %_ZNSt7__cxx1112basic_stringItN4base20string16_char_traitsESaItEED2Ev.exit.i.i
  tail call void @_ZdlPv(ptr noundef %13) #26
  br label %_ZN4base12_GLOBAL__N_112EmptyStringsD2Ev.exit.i

_ZN4base12_GLOBAL__N_112EmptyStringsD2Ev.exit.i:  ; preds = %_ZNKSt7__cxx1112basic_stringIcSt11char_traitsIcESaIcEE11_M_is_localEv.exit.i.i.i.i, %_ZNKSt7__cxx1112basic_stringIcSt11char_traitsIcESaIcEE11_M_is_localEv.exit.thread.i.i.i.i
  tail call void @_ZdlPv(ptr noundef nonnull %3) #26
  br label %_ZN4base22DefaultSingletonTraitsINS_12_GLOBAL__N_112EmptyStringsEE6DeleteEPS2_.exit

_ZN4base22DefaultSingletonTraitsINS_12_GLOBAL__N_112EmptyStringsEE6DeleteEPS2_.exit: ; preds = %1, %_ZN4base12_GLOBAL__N_112EmptyStringsD2Ev.exit.i
  store i64 0, ptr @_ZN4base9SingletonINS_12_GLOBAL__N_112EmptyStringsENS_22DefaultSingletonTraitsIS2_EES2_E9instance_E, align 8, !tbaa !52
  ret void
}